target datalayout = "e-m:e-p270:32:32-p271:32:32-p272:64:64-i64:64-i128:128-f80:128-n8:16:32:64-S128"
target triple = "x86_64-pc-linux-gnu"

%struct.Exstate_t = type { ptr, i64, i32, %struct.Exinput_s, ptr, ptr, ptr, i32, ptr, [1 x i8] }
%struct.Exinput_s = type { ptr, i32, ptr, ptr, i32, i32, i32, i32, ptr, ptr }
%union.EX_STYPE = type { ptr }
%struct.Exnode_s = type { i64, i64, i8, %union.anon, %union.Exdata_u, i32 }
%union.anon = type { ptr }
%union.Exdata_u = type { %struct.anon.2 }
%struct.anon.2 = type { ptr, ptr, ptr, ptr }
%struct.Expr_s = type { ptr, ptr, [10 x ptr], ptr, ptr, ptr, ptr, ptr, ptr, %struct.agxbuf, %union.EX_STYPE, %struct.Exid_s, [512 x i8], ptr, i32, i32, i32, i64, i64, i32 }
%struct.agxbuf = type { %union.anon.10 }
%union.anon.10 = type { %struct.anon.11 }
%struct.anon.11 = type { ptr, i64, i64, [7 x i8], i8 }
%struct.Exid_s = type { %struct.dtlink_s_, i64, i64, i64, i64, ptr, ptr, [32 x i8] }
%struct.dtlink_s_ = type { ptr, %union.anon.12 }
%union.anon.12 = type { ptr }
%struct.anon.0 = type { ptr, ptr }
%struct.anon = type { %union.EX_STYPE, ptr }
%struct.Fmt_t = type { %struct._sffmt_s, ptr, ptr, ptr, %union.EX_STYPE, ptr }
%struct._sffmt_s = type { ptr, ptr, i32, i64, i32, i32, i32, i32, ptr, i64 }

@.str.44 = private unnamed_addr constant [28 x i8] c"scanf: not enough arguments\00", align 1
@.str.45 = private unnamed_addr constant [55 x i8] c"scanf: %s: floating variable address argument expected\00", align 1
@.str.46 = private unnamed_addr constant [53 x i8] c"scanf: %s: string variable address argument expected\00", align 1
@expr = external global %struct.Exstate_t, align 8
@.str.47 = private unnamed_addr constant [51 x i8] c"scanf: %s: char variable address argument expected\00", align 1
@.str.48 = private unnamed_addr constant [54 x i8] c"scanf: %s: integer variable address argument expected\00", align 1

; Function Attrs: nounwind uwtable
define internal i32 @scformat(ptr noundef %0, ptr noundef %1) #0 {
  %3 = alloca i32, align 4
  %4 = alloca ptr, align 8
  %5 = alloca ptr, align 8
  %6 = alloca ptr, align 8
  %7 = alloca ptr, align 8
  %8 = alloca i32, align 4
  %9 = alloca ptr, align 8
  store ptr %0, ptr %4, align 8, !tbaa !10
  store ptr %1, ptr %5, align 8, !tbaa !124
  call void @llvm.lifetime.start.p0(i64 8, ptr %6) #15
  %10 = load ptr, ptr %5, align 8, !tbaa !124
  store ptr %10, ptr %6, align 8, !tbaa !10
  call void @llvm.lifetime.start.p0(i64 8, ptr %7) #15
  %11 = load ptr, ptr %6, align 8, !tbaa !10
  %12 = getelementptr inbounds nuw %struct.Fmt_t, ptr %11, i32 0, i32 5
  %13 = load ptr, ptr %12, align 8, !tbaa !105
  %14 = icmp ne ptr %13, null
  br i1 %14, label %16, label %15

15:                                               ; preds = %2
  call void (ptr, ...) @exerror(ptr noundef @.str.44)
  store i32 -1, ptr %3, align 4
  store i32 1, ptr %8, align 4
  br label %197

16:                                               ; preds = %2
  %17 = load ptr, ptr %6, align 8, !tbaa !10
  %18 = getelementptr inbounds nuw %struct.Fmt_t, ptr %17, i32 0, i32 5
  %19 = load ptr, ptr %18, align 8, !tbaa !105
  %20 = getelementptr inbounds nuw %struct.Exnode_s, ptr %19, i32 0, i32 4
  %21 = getelementptr inbounds nuw %struct.anon.0, ptr %20, i32 0, i32 0
  %22 = load ptr, ptr %21, align 8, !tbaa !11
  store ptr %22, ptr %7, align 8, !tbaa !8
  %23 = load ptr, ptr %5, align 8, !tbaa !124
  %24 = getelementptr inbounds nuw %struct._sffmt_s, ptr %23, i32 0, i32 2
  %25 = load i32, ptr %24, align 8, !tbaa !127
  switch i32 %25, label %155 [
    i32 102, label %26
    i32 103, label %26
    i32 115, label %51
    i32 91, label %51
    i32 99, label %130
  ]

26:                                               ; preds = %16, %16
  %27 = load ptr, ptr %7, align 8, !tbaa !8
  %28 = getelementptr inbounds nuw %struct.Exnode_s, ptr %27, i32 0, i32 0
  %29 = load i64, ptr %28, align 8, !tbaa !12
  %30 = icmp ne i64 %29, 262
  br i1 %30, label %31, label %38

31:                                               ; preds = %26
  %32 = load ptr, ptr %7, align 8, !tbaa !8
  %33 = getelementptr inbounds nuw %struct.Exnode_s, ptr %32, i32 0, i32 4
  %34 = getelementptr inbounds nuw %struct.anon.2, ptr %33, i32 0, i32 0
  %35 = load ptr, ptr %34, align 8, !tbaa !11
  %36 = getelementptr inbounds nuw %struct.Exid_s, ptr %35, i32 0, i32 7
  %37 = getelementptr inbounds [32 x i8], ptr %36, i64 0, i64 0
  call void (ptr, ...) @exerror(ptr noundef @.str.45, ptr noundef %37)
  store i32 -1, ptr %3, align 4
  store i32 1, ptr %8, align 4
  br label %197

38:                                               ; preds = %26
  %39 = load ptr, ptr %6, align 8, !tbaa !10
  %40 = getelementptr inbounds nuw %struct.Fmt_t, ptr %39, i32 0, i32 0
  %41 = getelementptr inbounds nuw %struct._sffmt_s, ptr %40, i32 0, i32 3
  store i64 8, ptr %41, align 8, !tbaa !129
  %42 = load ptr, ptr %7, align 8, !tbaa !8
  %43 = getelementptr inbounds nuw %struct.Exnode_s, ptr %42, i32 0, i32 4
  %44 = getelementptr inbounds nuw %struct.anon.2, ptr %43, i32 0, i32 0
  %45 = load ptr, ptr %44, align 8, !tbaa !11
  %46 = getelementptr inbounds nuw %struct.Exid_s, ptr %45, i32 0, i32 5
  %47 = load ptr, ptr %46, align 8, !tbaa !41
  %48 = getelementptr inbounds nuw %struct.Exnode_s, ptr %47, i32 0, i32 4
  %49 = getelementptr inbounds nuw %struct.anon, ptr %48, i32 0, i32 0
  %50 = load ptr, ptr %4, align 8, !tbaa !10
  store ptr %49, ptr %50, align 8, !tbaa !10
  br label %184

51:                                               ; preds = %16, %16
  %52 = load ptr, ptr %7, align 8, !tbaa !8
  %53 = getelementptr inbounds nuw %struct.Exnode_s, ptr %52, i32 0, i32 0
  %54 = load i64, ptr %53, align 8, !tbaa !12
  %55 = icmp ne i64 %54, 263
  br i1 %55, label %56, label %63

56:                                               ; preds = %51
  %57 = load ptr, ptr %7, align 8, !tbaa !8
  %58 = getelementptr inbounds nuw %struct.Exnode_s, ptr %57, i32 0, i32 4
  %59 = getelementptr inbounds nuw %struct.anon.2, ptr %58, i32 0, i32 0
  %60 = load ptr, ptr %59, align 8, !tbaa !11
  %61 = getelementptr inbounds nuw %struct.Exid_s, ptr %60, i32 0, i32 7
  %62 = getelementptr inbounds [32 x i8], ptr %61, i64 0, i64 0
  call void (ptr, ...) @exerror(ptr noundef @.str.46, ptr noundef %62)
  store i32 -1, ptr %3, align 4
  store i32 1, ptr %8, align 4
  br label %197

63:                                               ; preds = %51
  %64 = load ptr, ptr %7, align 8, !tbaa !8
  %65 = getelementptr inbounds nuw %struct.Exnode_s, ptr %64, i32 0, i32 4
  %66 = getelementptr inbounds nuw %struct.anon.2, ptr %65, i32 0, i32 0
  %67 = load ptr, ptr %66, align 8, !tbaa !11
  %68 = getelementptr inbounds nuw %struct.Exid_s, ptr %67, i32 0, i32 5
  %69 = load ptr, ptr %68, align 8, !tbaa !41
  %70 = getelementptr inbounds nuw %struct.Exnode_s, ptr %69, i32 0, i32 4
  %71 = getelementptr inbounds nuw %struct.anon, ptr %70, i32 0, i32 0
  %72 = load ptr, ptr %71, align 8, !tbaa !11
  %73 = icmp eq ptr %72, getelementptr inbounds nuw (%struct.Exstate_t, ptr @expr, i32 0, i32 9)
  br i1 %73, label %74, label %83

74:                                               ; preds = %63
  %75 = load ptr, ptr %7, align 8, !tbaa !8
  %76 = getelementptr inbounds nuw %struct.Exnode_s, ptr %75, i32 0, i32 4
  %77 = getelementptr inbounds nuw %struct.anon.2, ptr %76, i32 0, i32 0
  %78 = load ptr, ptr %77, align 8, !tbaa !11
  %79 = getelementptr inbounds nuw %struct.Exid_s, ptr %78, i32 0, i32 5
  %80 = load ptr, ptr %79, align 8, !tbaa !41
  %81 = getelementptr inbounds nuw %struct.Exnode_s, ptr %80, i32 0, i32 4
  %82 = getelementptr inbounds nuw %struct.anon, ptr %81, i32 0, i32 0
  store ptr null, ptr %82, align 8, !tbaa !11
  br label %83

83:                                               ; preds = %74, %63
  %84 = load ptr, ptr %6, align 8, !tbaa !10
  %85 = getelementptr inbounds nuw %struct.Fmt_t, ptr %84, i32 0, i32 0
  %86 = getelementptr inbounds nuw %struct._sffmt_s, ptr %85, i32 0, i32 3
  store i64 1024, ptr %86, align 8, !tbaa !129
  call void @llvm.lifetime.start.p0(i64 8, ptr %9) #15
  %87 = load ptr, ptr %7, align 8, !tbaa !8
  %88 = getelementptr inbounds nuw %struct.Exnode_s, ptr %87, i32 0, i32 4
  %89 = getelementptr inbounds nuw %struct.anon.2, ptr %88, i32 0, i32 0
  %90 = load ptr, ptr %89, align 8, !tbaa !11
  %91 = getelementptr inbounds nuw %struct.Exid_s, ptr %90, i32 0, i32 5
  %92 = load ptr, ptr %91, align 8, !tbaa !41
  %93 = getelementptr inbounds nuw %struct.Exnode_s, ptr %92, i32 0, i32 4
  %94 = getelementptr inbounds nuw %struct.anon, ptr %93, i32 0, i32 0
  %95 = load ptr, ptr %94, align 8, !tbaa !11
  store ptr %95, ptr %9, align 8, !tbaa !42
  %96 = load ptr, ptr %6, align 8, !tbaa !10
  %97 = getelementptr inbounds nuw %struct.Fmt_t, ptr %96, i32 0, i32 1
  %98 = load ptr, ptr %97, align 8, !tbaa !95
  %99 = getelementptr inbounds nuw %struct.Expr_s, ptr %98, i32 0, i32 3
  %100 = load ptr, ptr %99, align 8, !tbaa !40
  %101 = load ptr, ptr %9, align 8, !tbaa !42
  call void @vmfree(ptr noundef %100, ptr noundef %101)
  %102 = load ptr, ptr %6, align 8, !tbaa !10
  %103 = getelementptr inbounds nuw %struct.Fmt_t, ptr %102, i32 0, i32 1
  %104 = load ptr, ptr %103, align 8, !tbaa !95
  %105 = getelementptr inbounds nuw %struct.Expr_s, ptr %104, i32 0, i32 3
  %106 = load ptr, ptr %105, align 8, !tbaa !40
  %107 = load ptr, ptr %6, align 8, !tbaa !10
  %108 = getelementptr inbounds nuw %struct.Fmt_t, ptr %107, i32 0, i32 0
  %109 = getelementptr inbounds nuw %struct._sffmt_s, ptr %108, i32 0, i32 3
  %110 = load i64, ptr %109, align 8, !tbaa !129
  %111 = mul i64 1, %110
  %112 = call ptr @vmalloc(ptr noundef %106, i64 noundef %111)
  store ptr %112, ptr %9, align 8, !tbaa !42
  %113 = load ptr, ptr %9, align 8, !tbaa !42
  %114 = load ptr, ptr %6, align 8, !tbaa !10
  %115 = getelementptr inbounds nuw %struct.Fmt_t, ptr %114, i32 0, i32 0
  %116 = getelementptr inbounds nuw %struct._sffmt_s, ptr %115, i32 0, i32 3
  %117 = load i64, ptr %116, align 8, !tbaa !129
  %118 = mul i64 1, %117
  call void @llvm.memset.p0.i64(ptr align 1 %113, i8 0, i64 %118, i1 false)
  %119 = load ptr, ptr %9, align 8, !tbaa !42
  %120 = load ptr, ptr %4, align 8, !tbaa !10
  store ptr %119, ptr %120, align 8, !tbaa !10
  %121 = load ptr, ptr %9, align 8, !tbaa !42
  %122 = load ptr, ptr %7, align 8, !tbaa !8
  %123 = getelementptr inbounds nuw %struct.Exnode_s, ptr %122, i32 0, i32 4
  %124 = getelementptr inbounds nuw %struct.anon.2, ptr %123, i32 0, i32 0
  %125 = load ptr, ptr %124, align 8, !tbaa !11
  %126 = getelementptr inbounds nuw %struct.Exid_s, ptr %125, i32 0, i32 5
  %127 = load ptr, ptr %126, align 8, !tbaa !41
  %128 = getelementptr inbounds nuw %struct.Exnode_s, ptr %127, i32 0, i32 4
  %129 = getelementptr inbounds nuw %struct.anon, ptr %128, i32 0, i32 0
  store ptr %121, ptr %129, align 8, !tbaa !11
  store i32 2, ptr %8, align 4
  call void @llvm.lifetime.end.p0(i64 8, ptr %9) #15
  br label %184

130:                                              ; preds = %16
  %131 = load ptr, ptr %7, align 8, !tbaa !8
  %132 = getelementptr inbounds nuw %struct.Exnode_s, ptr %131, i32 0, i32 0
  %133 = load i64, ptr %132, align 8, !tbaa !12
  %134 = icmp ne i64 %133, 261
  br i1 %134, label %135, label %142

135:                                              ; preds = %130
  %136 = load ptr, ptr %7, align 8, !tbaa !8
  %137 = getelementptr inbounds nuw %struct.Exnode_s, ptr %136, i32 0, i32 4
  %138 = getelementptr inbounds nuw %struct.anon.2, ptr %137, i32 0, i32 0
  %139 = load ptr, ptr %138, align 8, !tbaa !11
  %140 = getelementptr inbounds nuw %struct.Exid_s, ptr %139, i32 0, i32 7
  %141 = getelementptr inbounds [32 x i8], ptr %140, i64 0, i64 0
  call void (ptr, ...) @exerror(ptr noundef @.str.47, ptr noundef %141)
  store i32 -1, ptr %3, align 4
  store i32 1, ptr %8, align 4
  br label %197

142:                                              ; preds = %130
  %143 = load ptr, ptr %6, align 8, !tbaa !10
  %144 = getelementptr inbounds nuw %struct.Fmt_t, ptr %143, i32 0, i32 0
  %145 = getelementptr inbounds nuw %struct._sffmt_s, ptr %144, i32 0, i32 3
  store i64 8, ptr %145, align 8, !tbaa !129
  %146 = load ptr, ptr %7, align 8, !tbaa !8
  %147 = getelementptr inbounds nuw %struct.Exnode_s, ptr %146, i32 0, i32 4
  %148 = getelementptr inbounds nuw %struct.anon.2, ptr %147, i32 0, i32 0
  %149 = load ptr, ptr %148, align 8, !tbaa !11
  %150 = getelementptr inbounds nuw %struct.Exid_s, ptr %149, i32 0, i32 5
  %151 = load ptr, ptr %150, align 8, !tbaa !41
  %152 = getelementptr inbounds nuw %struct.Exnode_s, ptr %151, i32 0, i32 4
  %153 = getelementptr inbounds nuw %struct.anon, ptr %152, i32 0, i32 0
  %154 = load ptr, ptr %4, align 8, !tbaa !10
  store ptr %153, ptr %154, align 8, !tbaa !10
  br label %184

155:                                              ; preds = %16
  %156 = load ptr, ptr %7, align 8, !tbaa !8
  %157 = getelementptr inbounds nuw %struct.Exnode_s, ptr %156, i32 0, i32 0
  %158 = load i64, ptr %157, align 8, !tbaa !12
  %159 = icmp ne i64 %158, 259
  br i1 %159, label %160, label %172

160:                                              ; preds = %155
  %161 = load ptr, ptr %7, align 8, !tbaa !8
  %162 = getelementptr inbounds nuw %struct.Exnode_s, ptr %161, i32 0, i32 0
  %163 = load i64, ptr %162, align 8, !tbaa !12
  %164 = icmp ne i64 %163, 260
  br i1 %164, label %165, label %172

165:                                              ; preds = %160
  %166 = load ptr, ptr %7, align 8, !tbaa !8
  %167 = getelementptr inbounds nuw %struct.Exnode_s, ptr %166, i32 0, i32 4
  %168 = getelementptr inbounds nuw %struct.anon.2, ptr %167, i32 0, i32 0
  %169 = load ptr, ptr %168, align 8, !tbaa !11
  %170 = getelementptr inbounds nuw %struct.Exid_s, ptr %169, i32 0, i32 7
  %171 = getelementptr inbounds [32 x i8], ptr %170, i64 0, i64 0
  call void (ptr, ...) @exerror(ptr noundef @.str.48, ptr noundef %171)
  store i32 -1, ptr %3, align 4
  store i32 1, ptr %8, align 4
  br label %197

172:                                              ; preds = %160, %155
  %173 = load ptr, ptr %5, align 8, !tbaa !124
  %174 = getelementptr inbounds nuw %struct._sffmt_s, ptr %173, i32 0, i32 3
  store i64 8, ptr %174, align 8, !tbaa !128
  %175 = load ptr, ptr %7, align 8, !tbaa !8
  %176 = getelementptr inbounds nuw %struct.Exnode_s, ptr %175, i32 0, i32 4
  %177 = getelementptr inbounds nuw %struct.anon.2, ptr %176, i32 0, i32 0
  %178 = load ptr, ptr %177, align 8, !tbaa !11
  %179 = getelementptr inbounds nuw %struct.Exid_s, ptr %178, i32 0, i32 5
  %180 = load ptr, ptr %179, align 8, !tbaa !41
  %181 = getelementptr inbounds nuw %struct.Exnode_s, ptr %180, i32 0, i32 4
  %182 = getelementptr inbounds nuw %struct.anon, ptr %181, i32 0, i32 0
  %183 = load ptr, ptr %4, align 8, !tbaa !10
  store ptr %182, ptr %183, align 8, !tbaa !10
  br label %184

184:                                              ; preds = %172, %142, %83, %38
  %185 = load ptr, ptr %6, align 8, !tbaa !10
  %186 = getelementptr inbounds nuw %struct.Fmt_t, ptr %185, i32 0, i32 5
  %187 = load ptr, ptr %186, align 8, !tbaa !105
  %188 = getelementptr inbounds nuw %struct.Exnode_s, ptr %187, i32 0, i32 4
  %189 = getelementptr inbounds nuw %struct.anon.0, ptr %188, i32 0, i32 1
  %190 = load ptr, ptr %189, align 8, !tbaa !11
  %191 = load ptr, ptr %6, align 8, !tbaa !10
  %192 = getelementptr inbounds nuw %struct.Fmt_t, ptr %191, i32 0, i32 5
  store ptr %190, ptr %192, align 8, !tbaa !105
  %193 = load ptr, ptr %5, align 8, !tbaa !124
  %194 = getelementptr inbounds nuw %struct._sffmt_s, ptr %193, i32 0, i32 4
  %195 = load i32, ptr %194, align 8, !tbaa !126
  %196 = or i32 %195, 131072
  store i32 %196, ptr %194, align 8, !tbaa !126
  store i32 0, ptr %3, align 4
  store i32 1, ptr %8, align 4
  br label %197

197:                                              ; preds = %184, %165, %135, %56, %31, %15
  call void @llvm.lifetime.end.p0(i64 8, ptr %7) #15
  call void @llvm.lifetime.end.p0(i64 8, ptr %6) #15
  %198 = load i32, ptr %3, align 4
  ret i32 %198
}