; Function Attrs: nounwind uwtable
define internal range(i32 -1, 1) i32 @scformat(ptr noundef writeonly captures(none) %0, ptr noundef captures(none) %1) #0 {
  %3 = getelementptr inbounds nuw i8, ptr %1, i64 96
  %4 = load ptr, ptr %3, align 8, !tbaa !96
  %.not = icmp eq ptr %4, null
  br i1 %.not, label %5, label %6

5:                                                ; preds = %2
  tail call void (ptr, ...) @exerror(ptr noundef nonnull @.str.44) #25
  br label %91

6:                                                ; preds = %2
  %7 = getelementptr inbounds nuw i8, ptr %4, i64 32
  %8 = load ptr, ptr %7, align 8, !tbaa !3
  %9 = getelementptr inbounds nuw i8, ptr %1, i64 16
  %10 = load i32, ptr %9, align 8, !tbaa !113
  switch i32 %10, label %71 [
    i32 102, label %11
    i32 103, label %11
    i32 115, label %24
    i32 91, label %24
    i32 99, label %58
  ]

11:                                               ; preds = %6, %6
  %12 = load i64, ptr %8, align 8, !tbaa !6
  %.not43 = icmp eq i64 %12, 262
  br i1 %.not43, label %17, label %13

13:                                               ; preds = %11
  %14 = getelementptr inbounds nuw i8, ptr %8, i64 32
  %15 = load ptr, ptr %14, align 8, !tbaa !3
  %16 = getelementptr inbounds nuw i8, ptr %15, i64 64
  tail call void (ptr, ...) @exerror(ptr noundef nonnull @.str.45, ptr noundef nonnull %16) #25
  br label %91

17:                                               ; preds = %11
  %18 = getelementptr inbounds nuw i8, ptr %1, i64 24
  store i64 8, ptr %18, align 8, !tbaa !116
  %19 = getelementptr inbounds nuw i8, ptr %8, i64 32
  %20 = load ptr, ptr %19, align 8, !tbaa !3
  %21 = getelementptr inbounds nuw i8, ptr %20, i64 48
  %22 = load ptr, ptr %21, align 8, !tbaa !37
  %23 = getelementptr inbounds nuw i8, ptr %22, i64 32
  store ptr %23, ptr %0, align 8, !tbaa !35
  br label %84

24:                                               ; preds = %6, %6
  %25 = load i64, ptr %8, align 8, !tbaa !6
  %.not42 = icmp eq i64 %25, 263
  %26 = getelementptr inbounds nuw i8, ptr %8, i64 32
  %27 = load ptr, ptr %26, align 8, !tbaa !3
  br i1 %.not42, label %30, label %28

28:                                               ; preds = %24
  %29 = getelementptr inbounds nuw i8, ptr %27, i64 64
  tail call void (ptr, ...) @exerror(ptr noundef nonnull @.str.46, ptr noundef nonnull %29) #25
  br label %91

30:                                               ; preds = %24
  %31 = getelementptr inbounds nuw i8, ptr %27, i64 48
  %32 = load ptr, ptr %31, align 8, !tbaa !37
  %33 = getelementptr inbounds nuw i8, ptr %32, i64 32
  %34 = load ptr, ptr %33, align 8, !tbaa !3
  %35 = icmp eq ptr %34, getelementptr inbounds nuw (i8, ptr @expr, i64 128)
  br i1 %35, label %36, label %37

36:                                               ; preds = %30
  store ptr null, ptr %33, align 8, !tbaa !3
  br label %37

37:                                               ; preds = %36, %30
  %38 = getelementptr inbounds nuw i8, ptr %1, i64 24
  store i64 1024, ptr %38, align 8, !tbaa !116
  %39 = load ptr, ptr %26, align 8, !tbaa !3
  %40 = getelementptr inbounds nuw i8, ptr %39, i64 48
  %41 = load ptr, ptr %40, align 8, !tbaa !37
  %42 = getelementptr inbounds nuw i8, ptr %41, i64 32
  %43 = load ptr, ptr %42, align 8, !tbaa !3
  %44 = getelementptr inbounds nuw i8, ptr %1, i64 64
  %45 = load ptr, ptr %44, align 8, !tbaa !87
  %46 = getelementptr inbounds nuw i8, ptr %45, i64 96
  %47 = load ptr, ptr %46, align 8, !tbaa !36
  tail call void @vmfree(ptr noundef %47, ptr noundef %43) #25
  %48 = load ptr, ptr %44, align 8, !tbaa !87
  %49 = getelementptr inbounds nuw i8, ptr %48, i64 96
  %50 = load ptr, ptr %49, align 8, !tbaa !36
  %51 = load i64, ptr %38, align 8, !tbaa !116
  %52 = tail call ptr @vmalloc(ptr noundef %50, i64 noundef %51) #25
  %53 = load i64, ptr %38, align 8, !tbaa !116
  tail call void @llvm.memset.p0.i64(ptr align 1 %52, i8 0, i64 %53, i1 false)
  store ptr %52, ptr %0, align 8, !tbaa !35
  %54 = load ptr, ptr %26, align 8, !tbaa !3
  %55 = getelementptr inbounds nuw i8, ptr %54, i64 48
  %56 = load ptr, ptr %55, align 8, !tbaa !37
  %57 = getelementptr inbounds nuw i8, ptr %56, i64 32
  store ptr %52, ptr %57, align 8, !tbaa !3
  br label %84

58:                                               ; preds = %6
  %59 = load i64, ptr %8, align 8, !tbaa !6
  %.not41 = icmp eq i64 %59, 261
  br i1 %.not41, label %64, label %60

60:                                               ; preds = %58
  %61 = getelementptr inbounds nuw i8, ptr %8, i64 32
  %62 = load ptr, ptr %61, align 8, !tbaa !3
  %63 = getelementptr inbounds nuw i8, ptr %62, i64 64
  tail call void (ptr, ...) @exerror(ptr noundef nonnull @.str.47, ptr noundef nonnull %63) #25
  br label %91

64:                                               ; preds = %58
  %65 = getelementptr inbounds nuw i8, ptr %1, i64 24
  store i64 8, ptr %65, align 8, !tbaa !116
  %66 = getelementptr inbounds nuw i8, ptr %8, i64 32
  %67 = load ptr, ptr %66, align 8, !tbaa !3
  %68 = getelementptr inbounds nuw i8, ptr %67, i64 48
  %69 = load ptr, ptr %68, align 8, !tbaa !37
  %70 = getelementptr inbounds nuw i8, ptr %69, i64 32
  store ptr %70, ptr %0, align 8, !tbaa !35
  br label %84

71:                                               ; preds = %6
  %72 = load i64, ptr %8, align 8, !tbaa !6
  %.off = add i64 %72, -259
  %switch = icmp ult i64 %.off, 2
  br i1 %switch, label %77, label %73

73:                                               ; preds = %71
  %74 = getelementptr inbounds nuw i8, ptr %8, i64 32
  %75 = load ptr, ptr %74, align 8, !tbaa !3
  %76 = getelementptr inbounds nuw i8, ptr %75, i64 64
  tail call void (ptr, ...) @exerror(ptr noundef nonnull @.str.48, ptr noundef nonnull %76) #25
  br label %91

77:                                               ; preds = %71
  %78 = getelementptr inbounds nuw i8, ptr %1, i64 24
  store i64 8, ptr %78, align 8, !tbaa !114
  %79 = getelementptr inbounds nuw i8, ptr %8, i64 32
  %80 = load ptr, ptr %79, align 8, !tbaa !3
  %81 = getelementptr inbounds nuw i8, ptr %80, i64 48
  %82 = load ptr, ptr %81, align 8, !tbaa !37
  %83 = getelementptr inbounds nuw i8, ptr %82, i64 32
  store ptr %83, ptr %0, align 8, !tbaa !35
  br label %84

84:                                               ; preds = %77, %64, %37, %17
  %85 = load ptr, ptr %3, align 8, !tbaa !96
  %86 = getelementptr inbounds nuw i8, ptr %85, i64 40
  %87 = load ptr, ptr %86, align 8, !tbaa !3
  store ptr %87, ptr %3, align 8, !tbaa !96
  %88 = getelementptr inbounds nuw i8, ptr %1, i64 32
  %89 = load i32, ptr %88, align 8, !tbaa !112
  %90 = or i32 %89, 131072
  store i32 %90, ptr %88, align 8, !tbaa !112
  br label %91

91:                                               ; preds = %84, %73, %60, %28, %13, %5
  %.0 = phi i32 [ -1, %73 ], [ 0, %84 ], [ -1, %60 ], [ -1, %28 ], [ -1, %13 ], [ -1, %5 ]
  ret i32 %.0
}